/*
 * Intel ACPI Component Architecture
 * AML/ASL+ Disassembler version 20180427 (64-bit version)(RM)
 * Copyright (c) 2000 - 2018 Intel Corporation
 * 
 * Disassembly of APIC.aml, Fri Aug 24 13:57:02 2018
 *
 * ACPI Data Table [APIC]
 *
 * Format: [HexOffset DecimalOffset ByteLength]  FieldName : FieldValue
 */

[000h 0000   4]                    Signature : "APIC"    [Multiple APIC Description Table (MADT)]
[004h 0004   4]                 Table Length : 0000008C
[008h 0008   1]                     Revision : 03
[009h 0009   1]                     Checksum : 9B
[00Ah 0010   6]                       Oem ID : "LENOVO"
[010h 0016   8]                 Oem Table ID : "CB-01   "
[018h 0024   4]                 Oem Revision : 00000001
[01Ch 0028   4]              Asl Compiler ID : "ACPI"
[020h 0032   4]        Asl Compiler Revision : 00040000

[024h 0036   4]           Local Apic Address : FEE00000
[028h 0040   4]        Flags (decoded below) : 00000001
                         PC-AT Compatibility : 1

[02Ch 0044   1]                Subtable Type : 00 [Processor Local APIC]
[02Dh 0045   1]                       Length : 08
[02Eh 0046   1]                 Processor ID : 01
[02Fh 0047   1]                Local Apic ID : 00
[030h 0048   4]        Flags (decoded below) : 00000001
                           Processor Enabled : 1

[034h 0052   1]                Subtable Type : 00 [Processor Local APIC]
[035h 0053   1]                       Length : 08
[036h 0054   1]                 Processor ID : 02
[037h 0055   1]                Local Apic ID : 01
[038h 0056   4]        Flags (decoded below) : 00000001
                           Processor Enabled : 1

[03Ch 0060   1]                Subtable Type : 00 [Processor Local APIC]
[03Dh 0061   1]                       Length : 08
[03Eh 0062   1]                 Processor ID : 03
[03Fh 0063   1]                Local Apic ID : 02
[040h 0064   4]        Flags (decoded below) : 00000001
                           Processor Enabled : 1

[044h 0068   1]                Subtable Type : 00 [Processor Local APIC]
[045h 0069   1]                       Length : 08
[046h 0070   1]                 Processor ID : 04
[047h 0071   1]                Local Apic ID : 03
[048h 0072   4]        Flags (decoded below) : 00000001
                           Processor Enabled : 1

[04Ch 0076   1]                Subtable Type : 00 [Processor Local APIC]
[04Dh 0077   1]                       Length : 08
[04Eh 0078   1]                 Processor ID : 05
[04Fh 0079   1]                Local Apic ID : 00
[050h 0080   4]        Flags (decoded below) : 00000000
                           Processor Enabled : 0

[054h 0084   1]                Subtable Type : 00 [Processor Local APIC]
[055h 0085   1]                       Length : 08
[056h 0086   1]                 Processor ID : 06
[057h 0087   1]                Local Apic ID : 00
[058h 0088   4]        Flags (decoded below) : 00000000
                           Processor Enabled : 0

[05Ch 0092   1]                Subtable Type : 00 [Processor Local APIC]
[05Dh 0093   1]                       Length : 08
[05Eh 0094   1]                 Processor ID : 07
[05Fh 0095   1]                Local Apic ID : 00
[060h 0096   4]        Flags (decoded below) : 00000000
                           Processor Enabled : 0

[064h 0100   1]                Subtable Type : 00 [Processor Local APIC]
[065h 0101   1]                       Length : 08
[066h 0102   1]                 Processor ID : 08
[067h 0103   1]                Local Apic ID : 00
[068h 0104   4]        Flags (decoded below) : 00000000
                           Processor Enabled : 0

[06Ch 0108   1]                Subtable Type : 01 [I/O APIC]
[06Dh 0109   1]                       Length : 0C
[06Eh 0110   1]                  I/O Apic ID : 00
[06Fh 0111   1]                     Reserved : 00
[070h 0112   4]                      Address : FEC00000
[074h 0116   4]                    Interrupt : 00000000

[078h 0120   1]                Subtable Type : 02 [Interrupt Source Override]
[079h 0121   1]                       Length : 0A
[07Ah 0122   1]                          Bus : 00
[07Bh 0123   1]                       Source : 00
[07Ch 0124   4]                    Interrupt : 00000002
[080h 0128   2]        Flags (decoded below) : 0000
                                    Polarity : 0
                                Trigger Mode : 0

[082h 0130   1]                Subtable Type : 02 [Interrupt Source Override]
[083h 0131   1]                       Length : 0A
[084h 0132   1]                          Bus : 00
[085h 0133   1]                       Source : 09
[086h 0134   4]                    Interrupt : 00000009
[08Ah 0138   2]        Flags (decoded below) : 000D
                                    Polarity : 1
                                Trigger Mode : 3

Raw Table Data: Length 140 (0x8C)

  0000: 41 50 49 43 8C 00 00 00 03 9B 4C 45 4E 4F 56 4F  // APIC......LENOVO
  0010: 43 42 2D 30 31 20 20 20 01 00 00 00 41 43 50 49  // CB-01   ....ACPI
  0020: 00 00 04 00 00 00 E0 FE 01 00 00 00 00 08 01 00  // ................
  0030: 01 00 00 00 00 08 02 01 01 00 00 00 00 08 03 02  // ................
  0040: 01 00 00 00 00 08 04 03 01 00 00 00 00 08 05 00  // ................
  0050: 00 00 00 00 00 08 06 00 00 00 00 00 00 08 07 00  // ................
  0060: 00 00 00 00 00 08 08 00 00 00 00 00 01 0C 00 00  // ................
  0070: 00 00 C0 FE 00 00 00 00 02 0A 00 00 02 00 00 00  // ................
  0080: 00 00 02 0A 00 09 09 00 00 00 0D 00              // ............
