/*
 * Intel ACPI Component Architecture
 * AML/ASL+ Disassembler version 20180427 (64-bit version)(RM)
 * Copyright (c) 2000 - 2018 Intel Corporation
 * 
 * Disassembly of BOOT.aml, Fri Aug 24 13:57:02 2018
 *
 * ACPI Data Table [BOOT]
 *
 * Format: [HexOffset DecimalOffset ByteLength]  FieldName : FieldValue
 */

[000h 0000   4]                    Signature : "BOOT"    [Simple Boot Flag Table]
[004h 0004   4]                 Table Length : 00000028
[008h 0008   1]                     Revision : 01
[009h 0009   1]                     Checksum : F7
[00Ah 0010   6]                       Oem ID : "LENOVO"
[010h 0016   8]                 Oem Table ID : "CB-01   "
[018h 0024   4]                 Oem Revision : 00000001
[01Ch 0028   4]              Asl Compiler ID : "ACPI"
[020h 0032   4]        Asl Compiler Revision : 00040000

[024h 0036   1]          Boot Register Index : 44
[025h 0037   3]                     Reserved : 000000

Raw Table Data: Length 40 (0x28)

  0000: 42 4F 4F 54 28 00 00 00 01 F7 4C 45 4E 4F 56 4F  // BOOT(.....LENOVO
  0010: 43 42 2D 30 31 20 20 20 01 00 00 00 41 43 50 49  // CB-01   ....ACPI
  0020: 00 00 04 00 44 00 00 00                          // ....D...
