/*
 * Intel ACPI Component Architecture
 * AML/ASL+ Disassembler version 20180427 (64-bit version)(RM)
 * Copyright (c) 2000 - 2018 Intel Corporation
 * 
 * Disassembly of DBGP.aml, Fri Aug 24 13:57:02 2018
 *
 * ACPI Data Table [DBGP]
 *
 * Format: [HexOffset DecimalOffset ByteLength]  FieldName : FieldValue
 */

[000h 0000   4]                    Signature : "DBGP"    [Debug Port table]
[004h 0004   4]                 Table Length : 00000034
[008h 0008   1]                     Revision : 01
[009h 0009   1]                     Checksum : 39
[00Ah 0010   6]                       Oem ID : "LENOVO"
[010h 0016   8]                 Oem Table ID : "CB-01   "
[018h 0024   4]                 Oem Revision : 00000001
[01Ch 0028   4]              Asl Compiler ID : "ACPI"
[020h 0032   4]        Asl Compiler Revision : 00040000

[024h 0036   1]               Interface Type : 01
[025h 0037   3]                     Reserved : 000000

[028h 0040  12]          Debug Port Register : [Generic Address Structure]
[028h 0040   1]                     Space ID : 01 [SystemIO]
[029h 0041   1]                    Bit Width : 10
[02Ah 0042   1]                   Bit Offset : 00
[02Bh 0043   1]         Encoded Access Width : 00 [Undefined/Legacy]
[02Ch 0044   8]                      Address : 00000000000003F8


Raw Table Data: Length 52 (0x34)

  0000: 44 42 47 50 34 00 00 00 01 39 4C 45 4E 4F 56 4F  // DBGP4....9LENOVO
  0010: 43 42 2D 30 31 20 20 20 01 00 00 00 41 43 50 49  // CB-01   ....ACPI
  0020: 00 00 04 00 01 00 00 00 01 10 00 00 F8 03 00 00  // ................
  0030: 00 00 00 00                                      // ....
