/*
 * Intel ACPI Component Architecture
 * AML/ASL+ Disassembler version 20180427 (64-bit version)(RM)
 * Copyright (c) 2000 - 2018 Intel Corporation
 * 
 * Disassembly of MCFG.aml, Fri Aug 24 20:49:16 2018
 *
 * ACPI Data Table [MCFG]
 *
 * Format: [HexOffset DecimalOffset ByteLength]  FieldName : FieldValue
 */

[000h 0000   4]                    Signature : "MCFG"    [Memory Mapped Configuration table]
[004h 0004   4]                 Table Length : 0000003C
[008h 0008   1]                     Revision : 01
[009h 0009   1]                     Checksum : AC
[00Ah 0010   6]                       Oem ID : "A_M_I_"
[010h 0016   8]                 Oem Table ID : "OEMMCFG "
[018h 0024   4]                 Oem Revision : 10000820
[01Ch 0028   4]              Asl Compiler ID : "MSFT"
[020h 0032   4]        Asl Compiler Revision : 00000097

[024h 0036   8]                     Reserved : 0000000000000000

[02Ch 0044   8]                 Base Address : 00000000E0000000
[034h 0052   2]         Segment Group Number : 0000
[036h 0054   1]             Start Bus Number : 00
[037h 0055   1]               End Bus Number : FF
[038h 0056   4]                     Reserved : 00000000

Raw Table Data: Length 60 (0x3C)

  0000: 4D 43 46 47 3C 00 00 00 01 AC 41 5F 4D 5F 49 5F  // MCFG<.....A_M_I_
  0010: 4F 45 4D 4D 43 46 47 20 20 08 00 10 4D 53 46 54  // OEMMCFG  ...MSFT
  0020: 97 00 00 00 00 00 00 00 00 00 00 00 00 00 00 E0  // ................
  0030: 00 00 00 00 00 00 00 FF 00 00 00 00              // ............
